target datalayout = "e-m:e-p270:32:32-p271:32:32-p272:64:64-i64:64-i128:128-f80:128-n8:16:32:64-S128"
target triple = "x86_64-pc-linux-gnu"

; Function Attrs: mustprogress nounwind uwtable
define linkonce_odr noundef double @_ZNSt14numeric_limitsIdE3maxEv() #0 comdat align 2 {
  ret double 0x7FEFFFFFFFFFFFFF
}

; Function Attrs: mustprogress uwtable
define noundef double @_ZN3g2o13HyperDijkstra10TreeAction7performEPNS_10HyperGraph6VertexES4_PNS2_4EdgeEd(ptr noundef nonnull align 8 dereferenceable(8) %0, ptr noundef %1, ptr noundef %2, ptr noundef %3, double noundef %4) unnamed_addr #1 align 2 {
  %6 = alloca double, align 8
  %7 = alloca ptr, align 8
  %8 = alloca ptr, align 8
  %9 = alloca ptr, align 8
  %10 = alloca ptr, align 8
  %11 = alloca double, align 8
  store ptr %0, ptr %7, align 8, !tbaa !3
  store ptr %1, ptr %8, align 8, !tbaa !8
  store ptr %2, ptr %9, align 8, !tbaa !8
  store ptr %3, ptr %10, align 8, !tbaa !10
  store double %4, ptr %11, align 8, !tbaa !12
  %12 = load ptr, ptr %7, align 8
  %13 = load double, ptr %11, align 8, !tbaa !12
  %14 = fcmp oeq double %13, -1.000000e+00
  br i1 %14, label %15, label %23

15:                                               ; preds = %5
  %16 = load ptr, ptr %8, align 8, !tbaa !8
  %17 = load ptr, ptr %9, align 8, !tbaa !8
  %18 = load ptr, ptr %10, align 8, !tbaa !10
  %19 = load ptr, ptr %12, align 8, !tbaa !14
  %20 = getelementptr inbounds ptr, ptr %19, i64 0
  %21 = load ptr, ptr %20, align 8
  %22 = call noundef double %21(ptr noundef nonnull align 8 dereferenceable(8) %12, ptr noundef %16, ptr noundef %17, ptr noundef %18)
  store double %22, ptr %6, align 8
  br label %25

23:                                               ; preds = %5
  %24 = call noundef double @_ZNSt14numeric_limitsIdE3maxEv() #14
  store double %24, ptr %6, align 8
  br label %25

25:                                               ; preds = %23, %15
  %26 = load double, ptr %6, align 8
  ret double %26
}