; Function Attrs: mustprogress uwtable
define noundef double @_ZN3g2o13HyperDijkstra10TreeAction7performEPNS_10HyperGraph6VertexES4_PNS2_4EdgeEd(ptr noundef nonnull align 8 dereferenceable(8) %0, ptr noundef %1, ptr noundef %2, ptr noundef %3, double noundef %4) unnamed_addr #1 align 2 {
  %6 = fcmp oeq double %4, -1.000000e+00
  br i1 %6, label %7, label %11

7:                                                ; preds = %5
  %8 = load ptr, ptr %0, align 8, !tbaa !3
  %9 = load ptr, ptr %8, align 8
  %10 = tail call noundef double %9(ptr noundef nonnull align 8 dereferenceable(8) %0, ptr noundef %1, ptr noundef %2, ptr noundef %3)
  br label %11

11:                                               ; preds = %5, %7
  %.0 = phi double [ %10, %7 ], [ 0x7FEFFFFFFFFFFFFF, %5 ]
  ret double %.0
}